; Function Attrs: nounwind uwtable
define dso_local range(i64 0, 2) i64 @pg_statistics_obj_is_visible(ptr noundef captures(none) %0) local_unnamed_addr #0 {
  %2 = alloca i8, align 1
  %3 = getelementptr inbounds nuw i8, ptr %0, i64 32
  %4 = load i64, ptr %3, align 8
  %5 = trunc i64 %4 to i32
  call void @llvm.lifetime.start.p0(i64 1, ptr nonnull %2) #19
  store i8 0, ptr %2, align 1
  %6 = call fastcc zeroext i1 @StatisticsObjIsVisibleExt(i32 noundef %5, ptr noundef nonnull %2)
  %7 = load i8, ptr %2, align 1, !range !4, !noundef !5
  %8 = trunc nuw i8 %7 to i1
  br i1 %8, label %9, label %11

9:                                                ; preds = %1
  %10 = getelementptr inbounds nuw i8, ptr %0, i64 28
  store i8 1, ptr %10, align 4
  br label %13

11:                                               ; preds = %1
  %12 = zext i1 %6 to i64
  br label %13

13:                                               ; preds = %11, %9
  %.0 = phi i64 [ 0, %9 ], [ %12, %11 ]
  call void @llvm.lifetime.end.p0(i64 1, ptr nonnull %2) #19
  ret i64 %.0
}